target datalayout = "e-m:e-p270:32:32-p271:32:32-p272:64:64-i64:64-i128:128-f80:128-n8:16:32:64-S128"
target triple = "x86_64-pc-linux-gnu"

%struct.HeapTupleData = type { i32, %struct.ItemPointerData, i32, ptr }
%struct.ItemPointerData = type { %struct.BlockIdData, i16 }
%struct.BlockIdData = type { i16, i16 }
%struct.PageHeaderData = type { %struct.PageXLogRecPtr, i16, i16, i16, i16, i16, i16, i32, [0 x %struct.ItemIdData] }
%struct.PageXLogRecPtr = type { i32, i32 }
%struct.ItemIdData = type { i32 }
%struct.RelationData = type { %struct.RelFileLocator, ptr, i32, i32, i8, i8, i8, i8, i8, i32, i32, i32, i32, ptr, ptr, i32, %struct.LockInfoData, ptr, ptr, ptr, ptr, ptr, i8, ptr, ptr, ptr, ptr, ptr, ptr, i32, ptr, i8, ptr, ptr, i32, i8, i32, ptr, i8, ptr, ptr, ptr, ptr, ptr, ptr, ptr, i32, ptr, ptr, ptr, ptr, ptr, ptr, ptr, ptr, ptr, ptr, ptr, ptr, ptr, ptr, ptr, ptr, ptr, ptr, ptr, i32, i8, ptr }
%struct.RelFileLocator = type { i32, i32, i32 }
%struct.LockInfoData = type { %struct.LockRelId }
%struct.LockRelId = type { i32, i32 }
%struct.HeapTupleHeaderData = type { %union.anon.1, %struct.ItemPointerData, i16, i16, i8, [0 x i8] }
%union.anon.1 = type { %struct.HeapTupleFields }
%struct.HeapTupleFields = type { i32, i32, %union.anon.2 }
%union.anon.2 = type { i32 }

@LocalBufferBlockPointers = external global ptr, align 8
@BufferBlocks = external global ptr, align 8

; Function Attrs: inlinehint nounwind uwtable
define internal i32 @BlockIdGetBlockNumber(ptr noundef %0) #3 {
  %2 = alloca ptr, align 8
  store ptr %0, ptr %2, align 8
  %3 = load ptr, ptr %2, align 8
  %4 = getelementptr inbounds nuw %struct.BlockIdData, ptr %3, i32 0, i32 0
  %5 = load i16, ptr %4, align 2
  %6 = zext i16 %5 to i32
  %7 = shl i32 %6, 16
  %8 = load ptr, ptr %2, align 8
  %9 = getelementptr inbounds nuw %struct.BlockIdData, ptr %8, i32 0, i32 1
  %10 = load i16, ptr %9, align 2
  %11 = zext i16 %10 to i32
  %12 = or i32 %7, %11
  ret i32 %12
}

; Function Attrs: inlinehint nounwind uwtable
define internal i32 @HeapTupleHeaderGetRawXmin(ptr noundef %0) #3 {
  %2 = alloca ptr, align 8
  store ptr %0, ptr %2, align 8
  %3 = load ptr, ptr %2, align 8
  %4 = getelementptr inbounds nuw %struct.HeapTupleHeaderData, ptr %3, i32 0, i32 0
  %5 = getelementptr inbounds nuw %struct.HeapTupleFields, ptr %4, i32 0, i32 0
  %6 = load i32, ptr %5, align 4
  ret i32 %6
}

; Function Attrs: inlinehint nounwind uwtable
define internal zeroext i1 @HeapTupleHeaderXminFrozen(ptr noundef %0) #3 {
  %2 = alloca ptr, align 8
  store ptr %0, ptr %2, align 8
  %3 = load ptr, ptr %2, align 8
  %4 = getelementptr inbounds nuw %struct.HeapTupleHeaderData, ptr %3, i32 0, i32 3
  %5 = load i16, ptr %4, align 4
  %6 = zext i16 %5 to i32
  %7 = and i32 %6, 768
  %8 = icmp eq i32 %7, 768
  ret i1 %8
}

; Function Attrs: inlinehint nounwind uwtable
define internal zeroext i16 @ItemPointerGetOffsetNumberNoCheck(ptr noundef %0) #3 {
  %2 = alloca ptr, align 8
  store ptr %0, ptr %2, align 8
  %3 = load ptr, ptr %2, align 8
  %4 = getelementptr inbounds nuw %struct.ItemPointerData, ptr %3, i32 0, i32 1
  %5 = load i16, ptr %4, align 2
  ret i16 %5
}

; Function Attrs: inlinehint nounwind uwtable
define internal ptr @BufferGetBlock(i32 noundef %0) #3 {
  %2 = alloca ptr, align 8
  %3 = alloca i32, align 4
  store i32 %0, ptr %3, align 4
  %4 = load i32, ptr %3, align 4
  %5 = icmp slt i32 %4, 0
  br i1 %5, label %6, label %14

6:                                                ; preds = %1
  %7 = load ptr, ptr @LocalBufferBlockPointers, align 8
  %8 = load i32, ptr %3, align 4
  %9 = sub i32 0, %8
  %10 = sub i32 %9, 1
  %11 = sext i32 %10 to i64
  %12 = getelementptr inbounds ptr, ptr %7, i64 %11
  %13 = load ptr, ptr %12, align 8
  store ptr %13, ptr %2, align 8
  br label %21

14:                                               ; preds = %1
  %15 = load ptr, ptr @BufferBlocks, align 8
  %16 = load i32, ptr %3, align 4
  %17 = sub i32 %16, 1
  %18 = sext i32 %17 to i64
  %19 = mul i64 %18, 8192
  %20 = getelementptr inbounds nuw i8, ptr %15, i64 %19
  store ptr %20, ptr %2, align 8
  br label %21

21:                                               ; preds = %14, %6
  %22 = load ptr, ptr %2, align 8
  ret ptr %22
}

; Function Attrs: inlinehint nounwind uwtable
define internal i32 @ItemPointerGetBlockNumberNoCheck(ptr noundef %0) #3 {
  %2 = alloca ptr, align 8
  store ptr %0, ptr %2, align 8
  %3 = load ptr, ptr %2, align 8
  %4 = getelementptr inbounds nuw %struct.ItemPointerData, ptr %3, i32 0, i32 0
  %5 = call i32 @BlockIdGetBlockNumber(ptr noundef %4)
  ret i32 %5
}

; Function Attrs: inlinehint nounwind uwtable
define internal i32 @HeapTupleHeaderGetXmin(ptr noundef %0) #3 {
  %2 = alloca ptr, align 8
  store ptr %0, ptr %2, align 8
  %3 = load ptr, ptr %2, align 8
  %4 = call zeroext i1 @HeapTupleHeaderXminFrozen(ptr noundef %3)
  br i1 %4, label %5, label %6

5:                                                ; preds = %1
  br label %9

6:                                                ; preds = %1
  %7 = load ptr, ptr %2, align 8
  %8 = call i32 @HeapTupleHeaderGetRawXmin(ptr noundef %7)
  br label %9

9:                                                ; preds = %6, %5
  %10 = phi i32 [ 2, %5 ], [ %8, %6 ]
  ret i32 %10
}

; Function Attrs: inlinehint nounwind uwtable
define internal ptr @PageGetItem(ptr noundef %0, ptr noundef %1) #3 {
  %3 = alloca ptr, align 8
  %4 = alloca ptr, align 8
  store ptr %0, ptr %3, align 8
  store ptr %1, ptr %4, align 8
  %5 = load ptr, ptr %3, align 8
  %6 = load ptr, ptr %4, align 8
  %7 = load i32, ptr %6, align 4
  %8 = and i32 %7, 32767
  %9 = sext i32 %8 to i64
  %10 = getelementptr inbounds i8, ptr %5, i64 %9
  ret ptr %10
}

; Function Attrs: inlinehint nounwind uwtable
define internal ptr @PageGetItemId(ptr noundef %0, i16 noundef zeroext %1) #3 {
  %3 = alloca ptr, align 8
  %4 = alloca i16, align 2
  store ptr %0, ptr %3, align 8
  store i16 %1, ptr %4, align 2
  %5 = load ptr, ptr %3, align 8
  %6 = getelementptr inbounds nuw %struct.PageHeaderData, ptr %5, i32 0, i32 8
  %7 = load i16, ptr %4, align 2
  %8 = zext i16 %7 to i32
  %9 = sub i32 %8, 1
  %10 = sext i32 %9 to i64
  %11 = getelementptr inbounds [0 x %struct.ItemIdData], ptr %6, i64 0, i64 %10
  ret ptr %11
}

; Function Attrs: inlinehint nounwind uwtable
define internal zeroext i16 @PageGetMaxOffsetNumber(ptr noundef %0) #3 {
  %2 = alloca i16, align 2
  %3 = alloca ptr, align 8
  %4 = alloca ptr, align 8
  %5 = alloca i32, align 4
  store ptr %0, ptr %3, align 8
  call void @llvm.lifetime.start.p0(i64 8, ptr %4) #10
  %6 = load ptr, ptr %3, align 8
  store ptr %6, ptr %4, align 8
  %7 = load ptr, ptr %4, align 8
  %8 = getelementptr inbounds nuw %struct.PageHeaderData, ptr %7, i32 0, i32 3
  %9 = load i16, ptr %8, align 4
  %10 = zext i16 %9 to i64
  %11 = icmp ule i64 %10, 24
  br i1 %11, label %12, label %13

12:                                               ; preds = %1
  store i16 0, ptr %2, align 2
  store i32 1, ptr %5, align 4
  br label %21

13:                                               ; preds = %1
  %14 = load ptr, ptr %4, align 8
  %15 = getelementptr inbounds nuw %struct.PageHeaderData, ptr %14, i32 0, i32 3
  %16 = load i16, ptr %15, align 4
  %17 = zext i16 %16 to i64
  %18 = sub i64 %17, 24
  %19 = udiv i64 %18, 4
  %20 = trunc i64 %19 to i16
  store i16 %20, ptr %2, align 2
  store i32 1, ptr %5, align 4
  br label %21

21:                                               ; preds = %13, %12
  call void @llvm.lifetime.end.p0(i64 8, ptr %4) #10
  %22 = load i16, ptr %2, align 2
  ret i16 %22
}

; Function Attrs: inlinehint nounwind uwtable
define internal zeroext i16 @ItemPointerGetOffsetNumber(ptr noundef %0) #3 {
  %2 = alloca ptr, align 8
  store ptr %0, ptr %2, align 8
  %3 = load ptr, ptr %2, align 8
  %4 = call zeroext i16 @ItemPointerGetOffsetNumberNoCheck(ptr noundef %3)
  ret i16 %4
}

; Function Attrs: inlinehint nounwind uwtable
define internal ptr @BufferGetPage(i32 noundef %0) #3 {
  %2 = alloca i32, align 4
  store i32 %0, ptr %2, align 4
  %3 = load i32, ptr %2, align 4
  %4 = call ptr @BufferGetBlock(i32 noundef %3)
  ret ptr %4
}

; Function Attrs: inlinehint nounwind uwtable
define internal i32 @ItemPointerGetBlockNumber(ptr noundef %0) #3 {
  %2 = alloca ptr, align 8
  store ptr %0, ptr %2, align 8
  %3 = load ptr, ptr %2, align 8
  %4 = call i32 @ItemPointerGetBlockNumberNoCheck(ptr noundef %3)
  ret i32 %4
}

; Function Attrs: nounwind uwtable
define dso_local zeroext i1 @heap_fetch(ptr noundef %0, ptr noundef %1, ptr noundef %2, ptr noundef %3, i1 noundef zeroext %4) #0 {
  %6 = alloca i1, align 1
  %7 = alloca ptr, align 8
  %8 = alloca ptr, align 8
  %9 = alloca ptr, align 8
  %10 = alloca ptr, align 8
  %11 = alloca i8, align 1
  %12 = alloca ptr, align 8
  %13 = alloca ptr, align 8
  %14 = alloca i32, align 4
  %15 = alloca ptr, align 8
  %16 = alloca i16, align 2
  %17 = alloca i8, align 1
  %18 = alloca i32, align 4
  store ptr %0, ptr %7, align 8
  store ptr %1, ptr %8, align 8
  store ptr %2, ptr %9, align 8
  store ptr %3, ptr %10, align 8
  %19 = zext i1 %4 to i8
  store i8 %19, ptr %11, align 1
  call void @llvm.lifetime.start.p0(i64 8, ptr %12) #10
  %20 = load ptr, ptr %9, align 8
  %21 = getelementptr inbounds nuw %struct.HeapTupleData, ptr %20, i32 0, i32 1
  store ptr %21, ptr %12, align 8
  call void @llvm.lifetime.start.p0(i64 8, ptr %13) #10
  call void @llvm.lifetime.start.p0(i64 4, ptr %14) #10
  call void @llvm.lifetime.start.p0(i64 8, ptr %15) #10
  call void @llvm.lifetime.start.p0(i64 2, ptr %16) #10
  call void @llvm.lifetime.start.p0(i64 1, ptr %17) #10
  %22 = load ptr, ptr %7, align 8
  %23 = load ptr, ptr %12, align 8
  %24 = call i32 @ItemPointerGetBlockNumber(ptr noundef %23)
  %25 = call i32 @ReadBuffer(ptr noundef %22, i32 noundef %24)
  store i32 %25, ptr %14, align 4
  %26 = load i32, ptr %14, align 4
  call void @LockBuffer(i32 noundef %26, i32 noundef 1)
  %27 = load i32, ptr %14, align 4
  %28 = call ptr @BufferGetPage(i32 noundef %27)
  store ptr %28, ptr %15, align 8
  %29 = load ptr, ptr %12, align 8
  %30 = call zeroext i16 @ItemPointerGetOffsetNumber(ptr noundef %29)
  store i16 %30, ptr %16, align 2
  %31 = load i16, ptr %16, align 2
  %32 = zext i16 %31 to i32
  %33 = icmp slt i32 %32, 1
  br i1 %33, label %41, label %34

34:                                               ; preds = %5
  %35 = load i16, ptr %16, align 2
  %36 = zext i16 %35 to i32
  %37 = load ptr, ptr %15, align 8
  %38 = call zeroext i16 @PageGetMaxOffsetNumber(ptr noundef %37)
  %39 = zext i16 %38 to i32
  %40 = icmp sgt i32 %36, %39
  br i1 %40, label %41, label %47

41:                                               ; preds = %34, %5
  %42 = load i32, ptr %14, align 4
  call void @LockBuffer(i32 noundef %42, i32 noundef 0)
  %43 = load i32, ptr %14, align 4
  call void @ReleaseBuffer(i32 noundef %43)
  %44 = load ptr, ptr %10, align 8
  store i32 0, ptr %44, align 4
  %45 = load ptr, ptr %9, align 8
  %46 = getelementptr inbounds nuw %struct.HeapTupleData, ptr %45, i32 0, i32 3
  store ptr null, ptr %46, align 8
  store i1 false, ptr %6, align 1
  store i32 1, ptr %18, align 4
  br label %119

47:                                               ; preds = %34
  %48 = load ptr, ptr %15, align 8
  %49 = load i16, ptr %16, align 2
  %50 = call ptr @PageGetItemId(ptr noundef %48, i16 noundef zeroext %49)
  store ptr %50, ptr %13, align 8
  %51 = load ptr, ptr %13, align 8
  %52 = load i32, ptr %51, align 4
  %53 = lshr i32 %52, 15
  %54 = and i32 %53, 3
  %55 = icmp eq i32 %54, 1
  br i1 %55, label %62, label %56

56:                                               ; preds = %47
  %57 = load i32, ptr %14, align 4
  call void @LockBuffer(i32 noundef %57, i32 noundef 0)
  %58 = load i32, ptr %14, align 4
  call void @ReleaseBuffer(i32 noundef %58)
  %59 = load ptr, ptr %10, align 8
  store i32 0, ptr %59, align 4
  %60 = load ptr, ptr %9, align 8
  %61 = getelementptr inbounds nuw %struct.HeapTupleData, ptr %60, i32 0, i32 3
  store ptr null, ptr %61, align 8
  store i1 false, ptr %6, align 1
  store i32 1, ptr %18, align 4
  br label %119

62:                                               ; preds = %47
  %63 = load ptr, ptr %15, align 8
  %64 = load ptr, ptr %13, align 8
  %65 = call ptr @PageGetItem(ptr noundef %63, ptr noundef %64)
  %66 = load ptr, ptr %9, align 8
  %67 = getelementptr inbounds nuw %struct.HeapTupleData, ptr %66, i32 0, i32 3
  store ptr %65, ptr %67, align 8
  %68 = load ptr, ptr %13, align 8
  %69 = load i32, ptr %68, align 4
  %70 = lshr i32 %69, 17
  %71 = load ptr, ptr %9, align 8
  %72 = getelementptr inbounds nuw %struct.HeapTupleData, ptr %71, i32 0, i32 0
  store i32 %70, ptr %72, align 8
  %73 = load ptr, ptr %7, align 8
  %74 = getelementptr inbounds nuw %struct.RelationData, ptr %73, i32 0, i32 15
  %75 = load i32, ptr %74, align 8
  %76 = load ptr, ptr %9, align 8
  %77 = getelementptr inbounds nuw %struct.HeapTupleData, ptr %76, i32 0, i32 2
  store i32 %75, ptr %77, align 4
  %78 = load ptr, ptr %9, align 8
  %79 = load ptr, ptr %8, align 8
  %80 = load i32, ptr %14, align 4
  %81 = call zeroext i1 @HeapTupleSatisfiesVisibility(ptr noundef %78, ptr noundef %79, i32 noundef %80)
  %82 = zext i1 %81 to i8
  store i8 %82, ptr %17, align 1
  %83 = load i8, ptr %17, align 1, !range !4, !noundef !5
  %84 = trunc i8 %83 to i1
  br i1 %84, label %85, label %94

85:                                               ; preds = %62
  %86 = load ptr, ptr %7, align 8
  %87 = load ptr, ptr %9, align 8
  %88 = getelementptr inbounds nuw %struct.HeapTupleData, ptr %87, i32 0, i32 1
  %89 = load ptr, ptr %8, align 8
  %90 = load ptr, ptr %9, align 8
  %91 = getelementptr inbounds nuw %struct.HeapTupleData, ptr %90, i32 0, i32 3
  %92 = load ptr, ptr %91, align 8
  %93 = call i32 @HeapTupleHeaderGetXmin(ptr noundef %92)
  call void @PredicateLockTID(ptr noundef %86, ptr noundef %88, ptr noundef %89, i32 noundef %93)
  br label %94

94:                                               ; preds = %85, %62
  %95 = load i8, ptr %17, align 1, !range !4, !noundef !5
  %96 = trunc i8 %95 to i1
  %97 = load ptr, ptr %7, align 8
  %98 = load ptr, ptr %9, align 8
  %99 = load i32, ptr %14, align 4
  %100 = load ptr, ptr %8, align 8
  call void @HeapCheckForSerializableConflictOut(i1 noundef zeroext %96, ptr noundef %97, ptr noundef %98, i32 noundef %99, ptr noundef %100)
  %101 = load i32, ptr %14, align 4
  call void @LockBuffer(i32 noundef %101, i32 noundef 0)
  %102 = load i8, ptr %17, align 1, !range !4, !noundef !5
  %103 = trunc i8 %102 to i1
  br i1 %103, label %104, label %107

104:                                              ; preds = %94
  %105 = load i32, ptr %14, align 4
  %106 = load ptr, ptr %10, align 8
  store i32 %105, ptr %106, align 4
  store i1 true, ptr %6, align 1
  store i32 1, ptr %18, align 4
  br label %119

107:                                              ; preds = %94
  %108 = load i8, ptr %11, align 1, !range !4, !noundef !5
  %109 = trunc i8 %108 to i1
  br i1 %109, label %110, label %113

110:                                              ; preds = %107
  %111 = load i32, ptr %14, align 4
  %112 = load ptr, ptr %10, align 8
  store i32 %111, ptr %112, align 4
  br label %118

113:                                              ; preds = %107
  %114 = load i32, ptr %14, align 4
  call void @ReleaseBuffer(i32 noundef %114)
  %115 = load ptr, ptr %10, align 8
  store i32 0, ptr %115, align 4
  %116 = load ptr, ptr %9, align 8
  %117 = getelementptr inbounds nuw %struct.HeapTupleData, ptr %116, i32 0, i32 3
  store ptr null, ptr %117, align 8
  br label %118

118:                                              ; preds = %113, %110
  store i1 false, ptr %6, align 1
  store i32 1, ptr %18, align 4
  br label %119

119:                                              ; preds = %118, %104, %56, %41
  call void @llvm.lifetime.end.p0(i64 1, ptr %17) #10
  call void @llvm.lifetime.end.p0(i64 2, ptr %16) #10
  call void @llvm.lifetime.end.p0(i64 8, ptr %15) #10
  call void @llvm.lifetime.end.p0(i64 4, ptr %14) #10
  call void @llvm.lifetime.end.p0(i64 8, ptr %13) #10
  call void @llvm.lifetime.end.p0(i64 8, ptr %12) #10
  %120 = load i1, ptr %6, align 1
  ret i1 %120
}