; Function Attrs: nounwind uwtable
define dso_local noundef zeroext i1 @heap_fetch(ptr noundef %0, ptr noundef %1, ptr noundef initializes((16, 24)) %2, ptr noundef writeonly captures(none) initializes((0, 4)) %3, i1 noundef zeroext %4) local_unnamed_addr #2 {
  %6 = getelementptr inbounds nuw i8, ptr %2, i64 4
  %.val52 = load i16, ptr %6, align 2
  %7 = getelementptr i8, ptr %2, i64 6
  %.val53 = load i16, ptr %7, align 2
  %8 = zext i16 %.val52 to i32
  %9 = shl nuw i32 %8, 16
  %10 = zext i16 %.val53 to i32
  %11 = or disjoint i32 %9, %10
  %12 = tail call i32 @ReadBuffer(ptr noundef %0, i32 noundef %11) #13
  tail call void @LockBuffer(i32 noundef %12, i32 noundef 1) #13
  %13 = icmp slt i32 %12, 0
  br i1 %13, label %14, label %20

14:                                               ; preds = %5
  %15 = load ptr, ptr @LocalBufferBlockPointers, align 8
  %16 = xor i32 %12, -1
  %17 = zext nneg i32 %16 to i64
  %18 = getelementptr inbounds nuw ptr, ptr %15, i64 %17
  %19 = load ptr, ptr %18, align 8
  br label %BufferGetPage.exit

20:                                               ; preds = %5
  %21 = load ptr, ptr @BufferBlocks, align 8
  %22 = add nsw i32 %12, -1
  %23 = sext i32 %22 to i64
  %24 = shl nsw i64 %23, 13
  %25 = getelementptr inbounds nuw i8, ptr %21, i64 %24
  br label %BufferGetPage.exit

BufferGetPage.exit:                               ; preds = %14, %20
  %.0.i.i = phi ptr [ %19, %14 ], [ %25, %20 ]
  %26 = getelementptr i8, ptr %2, i64 8
  %.val54 = load i16, ptr %26, align 2
  %27 = icmp eq i16 %.val54, 0
  br i1 %27, label %36, label %28

28:                                               ; preds = %BufferGetPage.exit
  %29 = getelementptr i8, ptr %.0.i.i, i64 12
  %.val = load i16, ptr %29, align 4
  %30 = icmp ult i16 %.val, 25
  %31 = zext i16 %.val to i32
  %32 = add nuw nsw i32 %31, 262120
  %33 = lshr i32 %32, 2
  %34 = trunc i32 %33 to i16
  %.0.i = select i1 %30, i16 0, i16 %34
  %35 = icmp ugt i16 %.val54, %.0.i
  br i1 %35, label %36, label %38

36:                                               ; preds = %28, %BufferGetPage.exit
  tail call void @LockBuffer(i32 noundef %12, i32 noundef 0) #13
  tail call void @ReleaseBuffer(i32 noundef %12) #13
  store i32 0, ptr %3, align 4
  %37 = getelementptr inbounds nuw i8, ptr %2, i64 16
  store ptr null, ptr %37, align 8
  br label %67

38:                                               ; preds = %28
  %39 = getelementptr inbounds nuw i8, ptr %.0.i.i, i64 24
  %40 = zext i16 %.val54 to i64
  %41 = add nsw i64 %40, -1
  %42 = getelementptr inbounds [0 x %struct.ItemIdData], ptr %39, i64 0, i64 %41
  %43 = load i32, ptr %42, align 4
  %44 = and i32 %43, 98304
  %45 = icmp eq i32 %44, 32768
  %46 = getelementptr inbounds nuw i8, ptr %2, i64 16
  br i1 %45, label %48, label %47

47:                                               ; preds = %38
  tail call void @LockBuffer(i32 noundef %12, i32 noundef 0) #13
  tail call void @ReleaseBuffer(i32 noundef %12) #13
  store i32 0, ptr %3, align 4
  store ptr null, ptr %46, align 8
  br label %67

48:                                               ; preds = %38
  %49 = and i32 %43, 32767
  %50 = zext nneg i32 %49 to i64
  %51 = getelementptr inbounds nuw i8, ptr %.0.i.i, i64 %50
  store ptr %51, ptr %46, align 8
  %52 = load i32, ptr %42, align 4
  %53 = lshr i32 %52, 17
  store i32 %53, ptr %2, align 8
  %54 = getelementptr inbounds nuw i8, ptr %0, i64 72
  %55 = load i32, ptr %54, align 8
  %56 = getelementptr inbounds nuw i8, ptr %2, i64 12
  store i32 %55, ptr %56, align 4
  %57 = tail call zeroext i1 @HeapTupleSatisfiesVisibility(ptr noundef nonnull %2, ptr noundef %1, i32 noundef %12) #13
  br i1 %57, label %58, label %.critedge

58:                                               ; preds = %48
  %59 = load ptr, ptr %46, align 8
  %60 = getelementptr i8, ptr %59, i64 20
  %.val.i = load i16, ptr %60, align 4
  %61 = and i16 %.val.i, 768
  %62 = icmp eq i16 %61, 768
  br i1 %62, label %HeapTupleHeaderGetXmin.exit, label %63

63:                                               ; preds = %58
  %.val2.i = load i32, ptr %59, align 4
  br label %HeapTupleHeaderGetXmin.exit

HeapTupleHeaderGetXmin.exit:                      ; preds = %58, %63
  %64 = phi i32 [ %.val2.i, %63 ], [ 2, %58 ]
  tail call void @PredicateLockTID(ptr noundef nonnull %0, ptr noundef nonnull %6, ptr noundef %1, i32 noundef %64) #13
  tail call void @HeapCheckForSerializableConflictOut(i1 noundef zeroext true, ptr noundef nonnull %0, ptr noundef nonnull %2, i32 noundef %12, ptr noundef %1)
  tail call void @LockBuffer(i32 noundef %12, i32 noundef 0) #13
  store i32 %12, ptr %3, align 4
  br label %67

.critedge:                                        ; preds = %48
  tail call void @HeapCheckForSerializableConflictOut(i1 noundef zeroext false, ptr noundef nonnull %0, ptr noundef nonnull %2, i32 noundef %12, ptr noundef %1)
  tail call void @LockBuffer(i32 noundef %12, i32 noundef 0) #13
  br i1 %4, label %65, label %66

65:                                               ; preds = %.critedge
  store i32 %12, ptr %3, align 4
  br label %67

66:                                               ; preds = %.critedge
  tail call void @ReleaseBuffer(i32 noundef %12) #13
  store i32 0, ptr %3, align 4
  store ptr null, ptr %46, align 8
  br label %67

67:                                               ; preds = %65, %66, %HeapTupleHeaderGetXmin.exit, %47, %36
  %.0 = phi i1 [ false, %36 ], [ true, %HeapTupleHeaderGetXmin.exit ], [ false, %47 ], [ false, %66 ], [ false, %65 ]
  ret i1 %.0
}